; Function Attrs: mustprogress nofree norecurse nosync nounwind willreturn memory(read, inaccessiblemem: none) uwtable
define hidden { ptr, ptr } @_ZNK6google8protobuf14DynamicMessage11GetMetadataEv(ptr noundef nonnull readonly align 8 captures(none) dereferenceable(28) %0) unnamed_addr #5 align 2 {
  %2 = getelementptr inbounds nuw i8, ptr %0, i64 16
  %3 = load ptr, ptr %2, align 8, !tbaa !10
  %4 = getelementptr inbounds nuw i8, ptr %3, i64 32
  %5 = load ptr, ptr %4, align 8, !tbaa !20
  %6 = getelementptr inbounds nuw i8, ptr %3, i64 56
  %7 = load ptr, ptr %6, align 8, !tbaa !206
  %.fca.0.insert = insertvalue { ptr, ptr } poison, ptr %5, 0
  %.fca.1.insert = insertvalue { ptr, ptr } %.fca.0.insert, ptr %7, 1
  ret { ptr, ptr } %.fca.1.insert
}